target datalayout = "e-m:e-p270:32:32-p271:32:32-p272:64:64-i64:64-i128:128-f80:128-n8:16:32:64-S128"
target triple = "x86_64-pc-linux-gnu"

; Function Attrs: mustprogress nounwind uwtable
define dso_local noundef i32 @_ZN4llvm19ConvertUTF32toUTF16EPPKjS1_PPtS3_NS_15ConversionFlagsE(ptr noundef %0, ptr noundef %1, ptr noundef %2, ptr noundef %3, i32 noundef %4) #0 {
  %6 = alloca ptr, align 8
  %7 = alloca ptr, align 8
  %8 = alloca ptr, align 8
  %9 = alloca ptr, align 8
  %10 = alloca i32, align 4
  %11 = alloca i32, align 4
  %12 = alloca ptr, align 8
  %13 = alloca ptr, align 8
  %14 = alloca i32, align 4
  store ptr %0, ptr %6, align 8
  store ptr %1, ptr %7, align 8
  store ptr %2, ptr %8, align 8
  store ptr %3, ptr %9, align 8
  store i32 %4, ptr %10, align 4
  store i32 0, ptr %11, align 4
  %15 = load ptr, ptr %6, align 8
  %16 = load ptr, ptr %15, align 8
  store ptr %16, ptr %12, align 8
  %17 = load ptr, ptr %8, align 8
  %18 = load ptr, ptr %17, align 8
  store ptr %18, ptr %13, align 8
  br label %19

19:                                               ; preds = %91, %5
  %20 = load ptr, ptr %12, align 8
  %21 = load ptr, ptr %7, align 8
  %22 = icmp ult ptr %20, %21
  br i1 %22, label %23, label %92

23:                                               ; preds = %19
  %24 = load ptr, ptr %13, align 8
  %25 = load ptr, ptr %9, align 8
  %26 = icmp uge ptr %24, %25
  br i1 %26, label %27, label %28

27:                                               ; preds = %23
  store i32 2, ptr %11, align 4
  br label %92

28:                                               ; preds = %23
  %29 = load ptr, ptr %12, align 8
  %30 = getelementptr inbounds i32, ptr %29, i32 1
  store ptr %30, ptr %12, align 8
  %31 = load i32, ptr %29, align 4
  store i32 %31, ptr %14, align 4
  %32 = load i32, ptr %14, align 4
  %33 = icmp ule i32 %32, 65535
  br i1 %33, label %34, label %56

34:                                               ; preds = %28
  %35 = load i32, ptr %14, align 4
  %36 = icmp uge i32 %35, 55296
  br i1 %36, label %37, label %50

37:                                               ; preds = %34
  %38 = load i32, ptr %14, align 4
  %39 = icmp ule i32 %38, 57343
  br i1 %39, label %40, label %50

40:                                               ; preds = %37
  %41 = load i32, ptr %10, align 4
  %42 = icmp eq i32 %41, 0
  br i1 %42, label %43, label %46

43:                                               ; preds = %40
  %44 = load ptr, ptr %12, align 8
  %45 = getelementptr inbounds i32, ptr %44, i32 -1
  store ptr %45, ptr %12, align 8
  store i32 3, ptr %11, align 4
  br label %92

46:                                               ; preds = %40
  %47 = load ptr, ptr %13, align 8
  %48 = getelementptr inbounds i16, ptr %47, i32 1
  store ptr %48, ptr %13, align 8
  store i16 -3, ptr %47, align 2
  br label %49

49:                                               ; preds = %46
  br label %55

50:                                               ; preds = %37, %34
  %51 = load i32, ptr %14, align 4
  %52 = trunc i32 %51 to i16
  %53 = load ptr, ptr %13, align 8
  %54 = getelementptr inbounds i16, ptr %53, i32 1
  store ptr %54, ptr %13, align 8
  store i16 %52, ptr %53, align 2
  br label %55

55:                                               ; preds = %50, %49
  br label %91

56:                                               ; preds = %28
  %57 = load i32, ptr %14, align 4
  %58 = icmp ugt i32 %57, 1114111
  br i1 %58, label %59, label %67

59:                                               ; preds = %56
  %60 = load i32, ptr %10, align 4
  %61 = icmp eq i32 %60, 0
  br i1 %61, label %62, label %63

62:                                               ; preds = %59
  store i32 3, ptr %11, align 4
  br label %66

63:                                               ; preds = %59
  %64 = load ptr, ptr %13, align 8
  %65 = getelementptr inbounds i16, ptr %64, i32 1
  store ptr %65, ptr %13, align 8
  store i16 -3, ptr %64, align 2
  br label %66

66:                                               ; preds = %63, %62
  br label %90

67:                                               ; preds = %56
  %68 = load ptr, ptr %13, align 8
  %69 = getelementptr inbounds i16, ptr %68, i64 1
  %70 = load ptr, ptr %9, align 8
  %71 = icmp uge ptr %69, %70
  br i1 %71, label %72, label %75

72:                                               ; preds = %67
  %73 = load ptr, ptr %12, align 8
  %74 = getelementptr inbounds i32, ptr %73, i32 -1
  store ptr %74, ptr %12, align 8
  store i32 2, ptr %11, align 4
  br label %92

75:                                               ; preds = %67
  %76 = load i32, ptr %14, align 4
  %77 = sub i32 %76, 65536
  store i32 %77, ptr %14, align 4
  %78 = load i32, ptr %14, align 4
  %79 = lshr i32 %78, 10
  %80 = add i32 %79, 55296
  %81 = trunc i32 %80 to i16
  %82 = load ptr, ptr %13, align 8
  %83 = getelementptr inbounds i16, ptr %82, i32 1
  store ptr %83, ptr %13, align 8
  store i16 %81, ptr %82, align 2
  %84 = load i32, ptr %14, align 4
  %85 = and i32 %84, 1023
  %86 = add i32 %85, 56320
  %87 = trunc i32 %86 to i16
  %88 = load ptr, ptr %13, align 8
  %89 = getelementptr inbounds i16, ptr %88, i32 1
  store ptr %89, ptr %13, align 8
  store i16 %87, ptr %88, align 2
  br label %90

90:                                               ; preds = %75, %66
  br label %91

91:                                               ; preds = %90, %55
  br label %19, !llvm.loop !4

92:                                               ; preds = %72, %43, %27, %19
  %93 = load ptr, ptr %12, align 8
  %94 = load ptr, ptr %6, align 8
  store ptr %93, ptr %94, align 8
  %95 = load ptr, ptr %13, align 8
  %96 = load ptr, ptr %8, align 8
  store ptr %95, ptr %96, align 8
  %97 = load i32, ptr %11, align 4
  ret i32 %97
}