; Function Attrs: mustprogress nofree norecurse nosync nounwind memory(readwrite, inaccessiblemem: none) uwtable
define dso_local noundef range(i32 0, 4) i32 @_ZN4llvm19ConvertUTF32toUTF16EPPKjS1_PPtS3_NS_15ConversionFlagsE(ptr nocapture noundef %0, ptr noundef readnone %1, ptr nocapture noundef %2, ptr noundef readnone %3, i32 noundef %4) local_unnamed_addr #0 {
  %6 = load ptr, ptr %0, align 8
  %7 = load ptr, ptr %2, align 8
  %8 = icmp ult ptr %6, %1
  br i1 %8, label %.lr.ph, label %._crit_edge

.lr.ph:                                           ; preds = %5
  %9 = icmp eq i32 %4, 0
  br i1 %9, label %.lr.ph.split.us.split.us, label %.lr.ph.split.split

.lr.ph.split.us.split.us:                         ; preds = %.lr.ph, %32
  %.042.us.us = phi ptr [ %.1.us.us, %32 ], [ %7, %.lr.ph ]
  %.03141.us.us = phi ptr [ %11, %32 ], [ %6, %.lr.ph ]
  %.03340.us.us = phi i32 [ %.2.us.us, %32 ], [ 0, %.lr.ph ]
  %.not.us.us = icmp ult ptr %.042.us.us, %3
  br i1 %.not.us.us, label %10, label %._crit_edge

10:                                               ; preds = %.lr.ph.split.us.split.us
  %11 = getelementptr inbounds i8, ptr %.03141.us.us, i64 4
  %12 = load i32, ptr %.03141.us.us, align 4
  %13 = icmp ult i32 %12, 65536
  br i1 %13, label %27, label %14

14:                                               ; preds = %10
  %15 = icmp ugt i32 %12, 1114111
  br i1 %15, label %32, label %16

16:                                               ; preds = %14
  %17 = getelementptr inbounds i8, ptr %.042.us.us, i64 2
  %.not39.us.us = icmp ult ptr %17, %3
  br i1 %.not39.us.us, label %18, label %._crit_edge

18:                                               ; preds = %16
  %19 = add nuw nsw i32 %12, 67043328
  %20 = lshr i32 %19, 10
  %21 = trunc i32 %20 to i16
  %22 = add nuw nsw i16 %21, -10240
  store i16 %22, ptr %.042.us.us, align 2
  %23 = trunc i32 %12 to i16
  %24 = and i16 %23, 1023
  %25 = or disjoint i16 %24, -9216
  %26 = getelementptr inbounds i8, ptr %.042.us.us, i64 4
  store i16 %25, ptr %17, align 2
  br label %32

27:                                               ; preds = %10
  %28 = and i32 %12, 63488
  %or.cond.us.us = icmp eq i32 %28, 55296
  br i1 %or.cond.us.us, label %._crit_edge, label %29

29:                                               ; preds = %27
  %30 = trunc nuw i32 %12 to i16
  %31 = getelementptr inbounds i8, ptr %.042.us.us, i64 2
  store i16 %30, ptr %.042.us.us, align 2
  br label %32

32:                                               ; preds = %14, %29, %18
  %.2.us.us = phi i32 [ %.03340.us.us, %29 ], [ %.03340.us.us, %18 ], [ 3, %14 ]
  %.1.us.us = phi ptr [ %31, %29 ], [ %26, %18 ], [ %.042.us.us, %14 ]
  %33 = icmp ult ptr %11, %1
  br i1 %33, label %.lr.ph.split.us.split.us, label %._crit_edge, !llvm.loop !4

.lr.ph.split.split:                               ; preds = %.lr.ph, %59
  %.042 = phi ptr [ %.1, %59 ], [ %7, %.lr.ph ]
  %.03141 = phi ptr [ %35, %59 ], [ %6, %.lr.ph ]
  %.not = icmp ult ptr %.042, %3
  br i1 %.not, label %34, label %._crit_edge

34:                                               ; preds = %.lr.ph.split.split
  %35 = getelementptr inbounds i8, ptr %.03141, i64 4
  %36 = load i32, ptr %.03141, align 4
  %37 = icmp ult i32 %36, 65536
  br i1 %37, label %38, label %45

38:                                               ; preds = %34
  %39 = and i32 %36, 63488
  %or.cond = icmp eq i32 %39, 55296
  br i1 %or.cond, label %40, label %42

40:                                               ; preds = %38
  %41 = getelementptr inbounds i8, ptr %.042, i64 2
  store i16 -3, ptr %.042, align 2
  br label %59

42:                                               ; preds = %38
  %43 = trunc nuw i32 %36 to i16
  %44 = getelementptr inbounds i8, ptr %.042, i64 2
  store i16 %43, ptr %.042, align 2
  br label %59

45:                                               ; preds = %34
  %46 = icmp ugt i32 %36, 1114111
  %47 = getelementptr inbounds i8, ptr %.042, i64 2
  br i1 %46, label %48, label %49

48:                                               ; preds = %45
  store i16 -3, ptr %.042, align 2
  br label %59

49:                                               ; preds = %45
  %.not39 = icmp ult ptr %47, %3
  br i1 %.not39, label %50, label %._crit_edge

50:                                               ; preds = %49
  %51 = add nuw nsw i32 %36, 67043328
  %52 = lshr i32 %51, 10
  %53 = trunc i32 %52 to i16
  %54 = add nuw nsw i16 %53, -10240
  store i16 %54, ptr %.042, align 2
  %55 = trunc i32 %36 to i16
  %56 = and i16 %55, 1023
  %57 = or disjoint i16 %56, -9216
  %58 = getelementptr inbounds i8, ptr %.042, i64 4
  store i16 %57, ptr %47, align 2
  br label %59

59:                                               ; preds = %50, %48, %40, %42
  %.1 = phi ptr [ %41, %40 ], [ %44, %42 ], [ %47, %48 ], [ %58, %50 ]
  %60 = icmp ult ptr %35, %1
  br i1 %60, label %.lr.ph.split.split, label %._crit_edge, !llvm.loop !4

._crit_edge:                                      ; preds = %59, %.lr.ph.split.split, %49, %32, %.lr.ph.split.us.split.us, %27, %16, %5
  %.031.lcssa = phi ptr [ %6, %5 ], [ %.03141.us.us, %16 ], [ %.03141.us.us, %27 ], [ %.03141.us.us, %.lr.ph.split.us.split.us ], [ %11, %32 ], [ %.03141, %49 ], [ %.03141, %.lr.ph.split.split ], [ %35, %59 ]
  %.0.lcssa = phi ptr [ %7, %5 ], [ %.042.us.us, %16 ], [ %.042.us.us, %27 ], [ %.042.us.us, %.lr.ph.split.us.split.us ], [ %.1.us.us, %32 ], [ %.042, %49 ], [ %.042, %.lr.ph.split.split ], [ %.1, %59 ]
  %.134 = phi i32 [ 0, %5 ], [ 2, %16 ], [ 3, %27 ], [ 2, %.lr.ph.split.us.split.us ], [ %.2.us.us, %32 ], [ 2, %49 ], [ 2, %.lr.ph.split.split ], [ 0, %59 ]
  store ptr %.031.lcssa, ptr %0, align 8
  store ptr %.0.lcssa, ptr %2, align 8
  ret i32 %.134
}